; Function Attrs: mustprogress uwtable
define noundef i32 @_ZN3zmq14plain_client_t13process_readyEPKhm(ptr noundef nonnull align 8 dereferenceable(1504) %this, ptr noundef %cmd_data_, i64 noundef %data_size_) local_unnamed_addr #0 align 2 {
entry:
  %_state = getelementptr inbounds i8, ptr %this, i64 1496
  %0 = load i32, ptr %_state, align 8
  %cmp.not = icmp eq i32 %0, 3
  br i1 %cmp.not, label %if.end, label %if.then

if.then:                                          ; preds = %entry
  %session = getelementptr inbounds i8, ptr %this, i64 1488
  %1 = load ptr, ptr %session, align 8
  %call = tail call noundef ptr @_ZNK3zmq14session_base_t10get_socketEv(ptr noundef nonnull align 8 dereferenceable(1624) %1)
  %2 = load ptr, ptr %session, align 8
  %call3 = tail call noundef nonnull align 8 dereferenceable(68) ptr @_ZNK3zmq14session_base_t12get_endpointEv(ptr noundef nonnull align 8 dereferenceable(1624) %2)
  tail call void @_ZN3zmq13socket_base_t31event_handshake_failed_protocolERKNS_19endpoint_uri_pair_tEi(ptr noundef nonnull align 8 dereferenceable(1825) %call, ptr noundef nonnull align 8 dereferenceable(68) %call3, i32 noundef 268435457)
  %call4 = tail call ptr @__errno_location() #12
  store i32 71, ptr %call4, align 4
  br label %return

if.end:                                           ; preds = %entry
  %add.ptr = getelementptr inbounds i8, ptr %cmd_data_, i64 6
  %sub = add i64 %data_size_, -6
  %call5 = tail call noundef i32 @_ZN3zmq11mechanism_t14parse_metadataEPKhmb(ptr noundef nonnull align 8 dereferenceable(1488) %this, ptr noundef nonnull %add.ptr, i64 noundef %sub, i1 noundef zeroext false)
  %cmp6 = icmp eq i32 %call5, 0
  br i1 %cmp6, label %if.then7, label %if.else

if.then7:                                         ; preds = %if.end
  store i32 5, ptr %_state, align 8
  br label %return

if.else:                                          ; preds = %if.end
  %session9 = getelementptr inbounds i8, ptr %this, i64 1488
  %3 = load ptr, ptr %session9, align 8
  %call10 = tail call noundef ptr @_ZNK3zmq14session_base_t10get_socketEv(ptr noundef nonnull align 8 dereferenceable(1624) %3)
  %4 = load ptr, ptr %session9, align 8
  %call12 = tail call noundef nonnull align 8 dereferenceable(68) ptr @_ZNK3zmq14session_base_t12get_endpointEv(ptr noundef nonnull align 8 dereferenceable(1624) %4)
  tail call void @_ZN3zmq13socket_base_t31event_handshake_failed_protocolERKNS_19endpoint_uri_pair_tEi(ptr noundef nonnull align 8 dereferenceable(1825) %call10, ptr noundef nonnull align 8 dereferenceable(68) %call12, i32 noundef 268435480)
  br label %return

return:                                           ; preds = %if.then7, %if.else, %if.then
  %retval.0 = phi i32 [ -1, %if.then ], [ %call5, %if.else ], [ 0, %if.then7 ]
  ret i32 %retval.0
}